target datalayout = "e-m:e-p270:32:32-p271:32:32-p272:64:64-i64:64-i128:128-f80:128-n8:16:32:64-S128"
target triple = "x86_64-unknown-linux-gnu"

%"class.boost::detail::shared_count" = type { ptr }
%"class.QuantLib::CrankNicolsonScheme" = type { double, double, %"class.boost::shared_ptr.18", %"class.boost::shared_ptr.19" }
%"class.boost::shared_ptr.18" = type { ptr, %"class.boost::detail::shared_count" }
%"class.boost::shared_ptr.19" = type { ptr, %"class.boost::detail::shared_count" }

@.str.8 = private unnamed_addr constant [8 x i8] c"px != 0\00", align 1
@.str.9 = private unnamed_addr constant [102 x i8] c"generated/home/dtcxzyw/WorkSpace/SDK/vcpkg/installed/x64-linux/include/boost/smart_ptr/shared_ptr.hpp\00", align 1
@__PRETTY_FUNCTION__._ZNK5boost10shared_ptrIN8QuantLib19ImplicitEulerSchemeEEptEv = private unnamed_addr constant [155 x i8] c"typename boost::detail::sp_member_access<T>::type boost::shared_ptr<QuantLib::ImplicitEulerScheme>::operator->() const [T = QuantLib::ImplicitEulerScheme]\00", align 1

; Function Attrs: mustprogress uwtable
define linkonce_odr noundef ptr @_ZNK5boost10shared_ptrIN8QuantLib19ImplicitEulerSchemeEEptEv(ptr noundef nonnull align 8 dereferenceable(16) %this) #3 comdat align 2 {
entry:
  %this.addr = alloca ptr, align 8
  store ptr %this, ptr %this.addr, align 8, !tbaa !3
  %this1 = load ptr, ptr %this.addr, align 8
  %px = getelementptr inbounds nuw %"class.boost::shared_ptr.19", ptr %this1, i32 0, i32 0
  %0 = load ptr, ptr %px, align 8, !tbaa !20
  %cmp = icmp ne ptr %0, null
  %lnot = xor i1 %cmp, true
  %lnot2 = xor i1 %lnot, true
  %conv = zext i1 %lnot2 to i64
  %expval = call i64 @llvm.expect.i64(i64 %conv, i64 1)
  %tobool = icmp ne i64 %expval, 0
  br i1 %tobool, label %cond.true, label %cond.false

cond.true:                                        ; preds = %entry
  br label %cond.end

cond.false:                                       ; preds = %entry
  call void @_ZN5boost16assertion_failedEPKcS1_S1_l(ptr noundef @.str.8, ptr noundef @__PRETTY_FUNCTION__._ZNK5boost10shared_ptrIN8QuantLib19ImplicitEulerSchemeEEptEv, ptr noundef @.str.9, i64 noundef 784)
  br label %cond.end

cond.end:                                         ; preds = %cond.false, %cond.true
  %px3 = getelementptr inbounds nuw %"class.boost::shared_ptr.19", ptr %this1, i32 0, i32 0
  %1 = load ptr, ptr %px3, align 8, !tbaa !20
  ret ptr %1
}

; Function Attrs: mustprogress uwtable
define noundef i64 @_ZNK8QuantLib19CrankNicolsonScheme18numberOfIterationsEv(ptr noundef nonnull align 8 dereferenceable(48) %this) #3 align 2 {
entry:
  %this.addr = alloca ptr, align 8
  store ptr %this, ptr %this.addr, align 8, !tbaa !3
  %this1 = load ptr, ptr %this.addr, align 8
  %implicit_ = getelementptr inbounds nuw %"class.QuantLib::CrankNicolsonScheme", ptr %this1, i32 0, i32 3
  %call = call noundef ptr @_ZNK5boost10shared_ptrIN8QuantLib19ImplicitEulerSchemeEEptEv(ptr noundef nonnull align 8 dereferenceable(16) %implicit_)
  %call2 = call noundef i64 @_ZNK8QuantLib19ImplicitEulerScheme18numberOfIterationsEv(ptr noundef nonnull align 8 dereferenceable(76) %call)
  ret i64 %call2
}