; Function Attrs: mustprogress uwtable
define noundef i64 @_ZNK8QuantLib19CrankNicolsonScheme18numberOfIterationsEv(ptr nocapture noundef nonnull readonly align 8 dereferenceable(48) %this) local_unnamed_addr #3 align 2 {
entry:
  %implicit_ = getelementptr inbounds nuw i8, ptr %this, i64 32
  %0 = load ptr, ptr %implicit_, align 8, !tbaa !43
  %cmp.not.i = icmp eq ptr %0, null
  br i1 %cmp.not.i, label %cond.false.i, label %_ZNK5boost10shared_ptrIN8QuantLib19ImplicitEulerSchemeEEptEv.exit, !prof !44

cond.false.i:                                     ; preds = %entry
  tail call void @_ZN5boost16assertion_failedEPKcS1_S1_l(ptr noundef nonnull @.str.8, ptr noundef nonnull @__PRETTY_FUNCTION__._ZNK5boost10shared_ptrIN8QuantLib19ImplicitEulerSchemeEEptEv, ptr noundef nonnull @.str.9, i64 noundef 784)
  %.pre.i = load ptr, ptr %implicit_, align 8, !tbaa !43
  br label %_ZNK5boost10shared_ptrIN8QuantLib19ImplicitEulerSchemeEEptEv.exit

_ZNK5boost10shared_ptrIN8QuantLib19ImplicitEulerSchemeEEptEv.exit: ; preds = %entry, %cond.false.i
  %1 = phi ptr [ %0, %entry ], [ %.pre.i, %cond.false.i ]
  %call2 = tail call noundef i64 @_ZNK8QuantLib19ImplicitEulerScheme18numberOfIterationsEv(ptr noundef nonnull align 8 dereferenceable(76) %1)
  ret i64 %call2
}